; Function Attrs: mustprogress nounwind uwtable
define hidden void @_ZNK4llvh2cl17basic_parser_impl18printOptionNoValueERKNS0_6OptionEm(ptr nocapture noundef nonnull readnone align 8 dereferenceable(8) %this, ptr nocapture noundef nonnull readonly align 8 dereferenceable(145) %O, i64 noundef %GlobalWidth) local_unnamed_addr #0 align 2 {
entry:
  tail call void @_ZNK4llvh2cl17basic_parser_impl15printOptionNameERKNS0_6OptionEm(ptr nonnull align 8 poison, ptr noundef nonnull align 8 dereferenceable(145) %O, i64 noundef %GlobalWidth)
  %call = tail call noundef nonnull align 8 dereferenceable(36) ptr @_ZN4llvh4outsEv() #27
  %OutBufEnd.i5.i = getelementptr inbounds i8, ptr %call, i64 16
  %0 = load ptr, ptr %OutBufEnd.i5.i, align 8
  %OutBufCur.i6.i = getelementptr inbounds i8, ptr %call, i64 24
  %1 = load ptr, ptr %OutBufCur.i6.i, align 8
  %sub.ptr.lhs.cast.i7.i = ptrtoint ptr %0 to i64
  %sub.ptr.rhs.cast.i8.i = ptrtoint ptr %1 to i64
  %sub.ptr.sub.i9.i = sub i64 %sub.ptr.lhs.cast.i7.i, %sub.ptr.rhs.cast.i8.i
  %cmp.i.i = icmp ult i64 %sub.ptr.sub.i9.i, 30
  br i1 %cmp.i.i, label %if.then.i.i, label %if.then4.i.i

if.then.i.i:                                      ; preds = %entry
  %call3.i.i = tail call noundef nonnull align 8 dereferenceable(36) ptr @_ZN4llvh11raw_ostream5writeEPKcm(ptr noundef nonnull align 8 dereferenceable(36) %call, ptr noundef nonnull @.str.33, i64 noundef 30) #27
  br label %_ZN4llvh11raw_ostreamlsEPKc.exit

if.then4.i.i:                                     ; preds = %entry
  tail call void @llvm.memcpy.p0.p0.i64(ptr noundef nonnull align 1 dereferenceable(30) %1, ptr noundef nonnull align 1 dereferenceable(30) @.str.33, i64 30, i1 false)
  %2 = load ptr, ptr %OutBufCur.i6.i, align 8
  %add.ptr.i.i = getelementptr inbounds i8, ptr %2, i64 30
  store ptr %add.ptr.i.i, ptr %OutBufCur.i6.i, align 8
  br label %_ZN4llvh11raw_ostreamlsEPKc.exit

_ZN4llvh11raw_ostreamlsEPKc.exit:                 ; preds = %if.then.i.i, %if.then4.i.i
  ret void
}